; ModuleID = 'source-C-CXX/0/703.cpp'
source_filename = "source-C-CXX/0/703.cpp"
target datalayout = "e-m:e-p270:32:32-p271:32:32-p272:64:64-i64:64-f80:128-n8:16:32:64-S128"
target triple = "x86_64-pc-linux-gnu"

%"class.std::ios_base::Init" = type { i8 }
%"class.std::basic_istream" = type { i32 (...)**, i64, %"class.std::basic_ios" }
%"class.std::basic_ios" = type { %"class.std::ios_base", %"class.std::basic_ostream"*, i8, i8, %"class.std::basic_streambuf"*, %"class.std::ctype"*, %"class.std::num_put"*, %"class.std::num_get"* }
%"class.std::ios_base" = type { i32 (...)**, i64, i64, i32, i32, i32, %"struct.std::ios_base::_Callback_list"*, %"struct.std::ios_base::_Words", [8 x %"struct.std::ios_base::_Words"], i32, %"struct.std::ios_base::_Words"*, %"class.std::locale" }
%"struct.std::ios_base::_Callback_list" = type { %"struct.std::ios_base::_Callback_list"*, void (i32, %"class.std::ios_base"*, i32)*, i32, i32 }
%"struct.std::ios_base::_Words" = type { i8*, i64 }
%"class.std::locale" = type { %"class.std::locale::_Impl"* }
%"class.std::locale::_Impl" = type { i32, %"class.std::locale::facet"**, i64, %"class.std::locale::facet"**, i8** }
%"class.std::locale::facet" = type <{ i32 (...)**, i32, [4 x i8] }>
%"class.std::basic_ostream" = type { i32 (...)**, %"class.std::basic_ios" }
%"class.std::basic_streambuf" = type { i32 (...)**, i8*, i8*, i8*, i8*, i8*, i8*, %"class.std::locale" }
%"class.std::ctype" = type <{ %"class.std::locale::facet.base", [4 x i8], %struct.__locale_struct*, i8, [7 x i8], i32*, i32*, i16*, i8, [256 x i8], [256 x i8], i8, [6 x i8] }>
%"class.std::locale::facet.base" = type <{ i32 (...)**, i32 }>
%struct.__locale_struct = type { [13 x %struct.__locale_data*], i16*, i32*, i32*, [13 x i8*] }
%struct.__locale_data = type opaque
%"class.std::num_put" = type { %"class.std::locale::facet.base", [4 x i8] }
%"class.std::num_get" = type { %"class.std::locale::facet.base", [4 x i8] }

@_ZStL8__ioinit = internal global %"class.std::ios_base::Init" zeroinitializer, align 1
@__dso_handle = external hidden global i8
@_ZSt3cin = external global %"class.std::basic_istream", align 8
@_ZSt4cout = external global %"class.std::basic_ostream", align 8
@llvm.global_ctors = appending global [1 x { i32, void ()*, i8* }] [{ i32, void ()*, i8* } { i32 65535, void ()* @_GLOBAL__sub_I_703.cpp, i8* null }]

declare void @_ZNSt8ios_base4InitC1Ev(%"class.std::ios_base::Init"* nonnull align 1 dereferenceable(1)) unnamed_addr #0

; Function Attrs: nounwind
declare void @_ZNSt8ios_base4InitD1Ev(%"class.std::ios_base::Init"* nonnull align 1 dereferenceable(1)) unnamed_addr #1

; Function Attrs: nofree nounwind
declare i32 @__cxa_atexit(void (i8*)*, i8*, i8*) local_unnamed_addr #2

; Function Attrs: mustprogress nofree nounwind sspstrong uwtable
define dso_local i32 @_Z1fii(i32 %0, i32 %1) local_unnamed_addr #3 {
  %3 = alloca [100 x i32], align 16
  %4 = bitcast [100 x i32]* %3 to i8*
  call void @llvm.lifetime.start.p0i8(i64 400, i8* nonnull %4) #10
  %5 = sitofp i32 %1 to double
  %6 = sitofp i32 %0 to double
  %7 = tail call double @sqrt(double %5) #10
  %8 = fcmp ult double %7, %6
  br i1 %8, label %129, label %103

9:                                                ; preds = %115
  %10 = icmp slt i32 %116, 1
  br i1 %10, label %129, label %11

11:                                               ; preds = %9
  %12 = add nuw i32 %116, 1
  %13 = zext i32 %12 to i64
  %14 = add nsw i64 %13, -1
  %15 = icmp ult i64 %14, 8
  br i1 %15, label %100, label %16

16:                                               ; preds = %11
  %17 = and i64 %14, -8
  %18 = or i64 %17, 1
  %19 = add nsw i64 %17, -8
  %20 = lshr exact i64 %19, 3
  %21 = add nuw nsw i64 %20, 1
  %22 = and i64 %21, 3
  %23 = icmp ult i64 %19, 24
  br i1 %23, label %70, label %24

24:                                               ; preds = %16
  %25 = and i64 %21, 4611686018427387900
  br label %26

26:                                               ; preds = %26, %24
  %27 = phi i64 [ 0, %24 ], [ %67, %26 ]
  %28 = phi <4 x i32> [ zeroinitializer, %24 ], [ %65, %26 ]
  %29 = phi <4 x i32> [ zeroinitializer, %24 ], [ %66, %26 ]
  %30 = phi i64 [ %25, %24 ], [ %68, %26 ]
  %31 = or i64 %27, 1
  %32 = getelementptr inbounds [100 x i32], [100 x i32]* %3, i64 0, i64 %31
  %33 = bitcast i32* %32 to <4 x i32>*
  %34 = load <4 x i32>, <4 x i32>* %33, align 4, !tbaa !5
  %35 = getelementptr inbounds i32, i32* %32, i64 4
  %36 = bitcast i32* %35 to <4 x i32>*
  %37 = load <4 x i32>, <4 x i32>* %36, align 4, !tbaa !5
  %38 = add <4 x i32> %34, %28
  %39 = add <4 x i32> %37, %29
  %40 = or i64 %27, 9
  %41 = getelementptr inbounds [100 x i32], [100 x i32]* %3, i64 0, i64 %40
  %42 = bitcast i32* %41 to <4 x i32>*
  %43 = load <4 x i32>, <4 x i32>* %42, align 4, !tbaa !5
  %44 = getelementptr inbounds i32, i32* %41, i64 4
  %45 = bitcast i32* %44 to <4 x i32>*
  %46 = load <4 x i32>, <4 x i32>* %45, align 4, !tbaa !5
  %47 = add <4 x i32> %43, %38
  %48 = add <4 x i32> %46, %39
  %49 = or i64 %27, 17
  %50 = getelementptr inbounds [100 x i32], [100 x i32]* %3, i64 0, i64 %49
  %51 = bitcast i32* %50 to <4 x i32>*
  %52 = load <4 x i32>, <4 x i32>* %51, align 4, !tbaa !5
  %53 = getelementptr inbounds i32, i32* %50, i64 4
  %54 = bitcast i32* %53 to <4 x i32>*
  %55 = load <4 x i32>, <4 x i32>* %54, align 4, !tbaa !5
  %56 = add <4 x i32> %52, %47
  %57 = add <4 x i32> %55, %48
  %58 = or i64 %27, 25
  %59 = getelementptr inbounds [100 x i32], [100 x i32]* %3, i64 0, i64 %58
  %60 = bitcast i32* %59 to <4 x i32>*
  %61 = load <4 x i32>, <4 x i32>* %60, align 4, !tbaa !5
  %62 = getelementptr inbounds i32, i32* %59, i64 4
  %63 = bitcast i32* %62 to <4 x i32>*
  %64 = load <4 x i32>, <4 x i32>* %63, align 4, !tbaa !5
  %65 = add <4 x i32> %61, %56
  %66 = add <4 x i32> %64, %57
  %67 = add nuw i64 %27, 32
  %68 = add i64 %30, -4
  %69 = icmp eq i64 %68, 0
  br i1 %69, label %70, label %26, !llvm.loop !9

70:                                               ; preds = %26, %16
  %71 = phi <4 x i32> [ undef, %16 ], [ %65, %26 ]
  %72 = phi <4 x i32> [ undef, %16 ], [ %66, %26 ]
  %73 = phi i64 [ 0, %16 ], [ %67, %26 ]
  %74 = phi <4 x i32> [ zeroinitializer, %16 ], [ %65, %26 ]
  %75 = phi <4 x i32> [ zeroinitializer, %16 ], [ %66, %26 ]
  %76 = icmp eq i64 %22, 0
  br i1 %76, label %94, label %77

77:                                               ; preds = %70, %77
  %78 = phi i64 [ %91, %77 ], [ %73, %70 ]
  %79 = phi <4 x i32> [ %89, %77 ], [ %74, %70 ]
  %80 = phi <4 x i32> [ %90, %77 ], [ %75, %70 ]
  %81 = phi i64 [ %92, %77 ], [ %22, %70 ]
  %82 = or i64 %78, 1
  %83 = getelementptr inbounds [100 x i32], [100 x i32]* %3, i64 0, i64 %82
  %84 = bitcast i32* %83 to <4 x i32>*
  %85 = load <4 x i32>, <4 x i32>* %84, align 4, !tbaa !5
  %86 = getelementptr inbounds i32, i32* %83, i64 4
  %87 = bitcast i32* %86 to <4 x i32>*
  %88 = load <4 x i32>, <4 x i32>* %87, align 4, !tbaa !5
  %89 = add <4 x i32> %85, %79
  %90 = add <4 x i32> %88, %80
  %91 = add nuw i64 %78, 8
  %92 = add i64 %81, -1
  %93 = icmp eq i64 %92, 0
  br i1 %93, label %94, label %77, !llvm.loop !12

94:                                               ; preds = %77, %70
  %95 = phi <4 x i32> [ %71, %70 ], [ %89, %77 ]
  %96 = phi <4 x i32> [ %72, %70 ], [ %90, %77 ]
  %97 = add <4 x i32> %96, %95
  %98 = call i32 @llvm.vector.reduce.add.v4i32(<4 x i32> %97)
  %99 = icmp eq i64 %14, %17
  br i1 %99, label %129, label %100

100:                                              ; preds = %11, %94
  %101 = phi i64 [ 1, %11 ], [ %18, %94 ]
  %102 = phi i32 [ 0, %11 ], [ %98, %94 ]
  br label %121

103:                                              ; preds = %2, %115
  %104 = phi i32 [ %116, %115 ], [ 0, %2 ]
  %105 = phi i32 [ %117, %115 ], [ %0, %2 ]
  %106 = srem i32 %1, %105
  %107 = sdiv i32 %1, %105
  %108 = icmp eq i32 %106, 0
  br i1 %108, label %109, label %115

109:                                              ; preds = %103
  %110 = add nsw i32 %104, 1
  %111 = tail call i32 @_Z1fii(i32 %105, i32 %107)
  %112 = add nsw i32 %111, 1
  %113 = sext i32 %110 to i64
  %114 = getelementptr inbounds [100 x i32], [100 x i32]* %3, i64 0, i64 %113
  store i32 %112, i32* %114, align 4, !tbaa !5
  br label %115

115:                                              ; preds = %103, %109
  %116 = phi i32 [ %110, %109 ], [ %104, %103 ]
  %117 = add nsw i32 %105, 1
  %118 = sitofp i32 %117 to double
  %119 = tail call double @sqrt(double %5) #10
  %120 = fcmp ult double %119, %118
  br i1 %120, label %9, label %103, !llvm.loop !14

121:                                              ; preds = %100, %121
  %122 = phi i64 [ %127, %121 ], [ %101, %100 ]
  %123 = phi i32 [ %126, %121 ], [ %102, %100 ]
  %124 = getelementptr inbounds [100 x i32], [100 x i32]* %3, i64 0, i64 %122
  %125 = load i32, i32* %124, align 4, !tbaa !5
  %126 = add nsw i32 %125, %123
  %127 = add nuw nsw i64 %122, 1
  %128 = icmp eq i64 %127, %13
  br i1 %128, label %129, label %121, !llvm.loop !15

129:                                              ; preds = %121, %94, %2, %9
  %130 = phi i32 [ 0, %9 ], [ 0, %2 ], [ %98, %94 ], [ %126, %121 ]
  call void @llvm.lifetime.end.p0i8(i64 400, i8* nonnull %4) #10
  ret i32 %130
}

; Function Attrs: argmemonly mustprogress nofree nosync nounwind willreturn
declare void @llvm.lifetime.start.p0i8(i64 immarg, i8* nocapture) #4

; Function Attrs: argmemonly mustprogress nofree nosync nounwind willreturn
declare void @llvm.lifetime.end.p0i8(i64 immarg, i8* nocapture) #4

; Function Attrs: mustprogress norecurse sspstrong uwtable
define dso_local i32 @main() local_unnamed_addr #5 {
  %1 = alloca i32, align 4
  %2 = alloca i32, align 4
  %3 = alloca [100 x i32], align 16
  %4 = bitcast i32* %1 to i8*
  call void @llvm.lifetime.start.p0i8(i64 4, i8* nonnull %4) #10
  %5 = bitcast i32* %2 to i8*
  call void @llvm.lifetime.start.p0i8(i64 4, i8* nonnull %5) #10
  %6 = bitcast [100 x i32]* %3 to i8*
  call void @llvm.lifetime.start.p0i8(i64 400, i8* nonnull %6) #10
  %7 = call nonnull align 8 dereferenceable(16) %"class.std::basic_istream"* @_ZNSirsERi(%"class.std::basic_istream"* nonnull align 8 dereferenceable(16) @_ZSt3cin, i32* nonnull align 4 dereferenceable(4) %1)
  %8 = load i32, i32* %1, align 4, !tbaa !5
  %9 = icmp slt i32 %8, 1
  br i1 %9, label %61, label %12

10:                                               ; preds = %12
  %11 = icmp slt i32 %18, 1
  br i1 %11, label %61, label %21

12:                                               ; preds = %0, %12
  %13 = phi i64 [ %17, %12 ], [ 1, %0 ]
  %14 = call nonnull align 8 dereferenceable(16) %"class.std::basic_istream"* @_ZNSirsERi(%"class.std::basic_istream"* nonnull align 8 dereferenceable(16) @_ZSt3cin, i32* nonnull align 4 dereferenceable(4) %2)
  %15 = load i32, i32* %2, align 4, !tbaa !5
  %16 = getelementptr inbounds [100 x i32], [100 x i32]* %3, i64 0, i64 %13
  store i32 %15, i32* %16, align 4, !tbaa !5
  %17 = add nuw nsw i64 %13, 1
  %18 = load i32, i32* %1, align 4, !tbaa !5
  %19 = sext i32 %18 to i64
  %20 = icmp slt i64 %13, %19
  br i1 %20, label %12, label %10, !llvm.loop !17

21:                                               ; preds = %10, %53
  %22 = phi i64 [ %57, %53 ], [ 1, %10 ]
  %23 = getelementptr inbounds [100 x i32], [100 x i32]* %3, i64 0, i64 %22
  %24 = load i32, i32* %23, align 4, !tbaa !5
  %25 = call i32 @_Z1fii(i32 2, i32 %24)
  %26 = add nsw i32 %25, 1
  %27 = call nonnull align 8 dereferenceable(8) %"class.std::basic_ostream"* @_ZNSolsEi(%"class.std::basic_ostream"* nonnull align 8 dereferenceable(8) @_ZSt4cout, i32 %26)
  %28 = bitcast %"class.std::basic_ostream"* %27 to i8**
  %29 = load i8*, i8** %28, align 8, !tbaa !18
  %30 = getelementptr i8, i8* %29, i64 -24
  %31 = bitcast i8* %30 to i64*
  %32 = load i64, i64* %31, align 8
  %33 = bitcast %"class.std::basic_ostream"* %27 to i8*
  %34 = add nsw i64 %32, 240
  %35 = getelementptr inbounds i8, i8* %33, i64 %34
  %36 = bitcast i8* %35 to %"class.std::ctype"**
  %37 = load %"class.std::ctype"*, %"class.std::ctype"** %36, align 8, !tbaa !20
  %38 = icmp eq %"class.std::ctype"* %37, null
  br i1 %38, label %39, label %40

39:                                               ; preds = %21
  call void @_ZSt16__throw_bad_castv() #11
  unreachable

40:                                               ; preds = %21
  %41 = getelementptr inbounds %"class.std::ctype", %"class.std::ctype"* %37, i64 0, i32 8
  %42 = load i8, i8* %41, align 8, !tbaa !24
  %43 = icmp eq i8 %42, 0
  br i1 %43, label %47, label %44

44:                                               ; preds = %40
  %45 = getelementptr inbounds %"class.std::ctype", %"class.std::ctype"* %37, i64 0, i32 9, i64 10
  %46 = load i8, i8* %45, align 1, !tbaa !26
  br label %53

47:                                               ; preds = %40
  call void @_ZNKSt5ctypeIcE13_M_widen_initEv(%"class.std::ctype"* nonnull align 8 dereferenceable(570) %37)
  %48 = bitcast %"class.std::ctype"* %37 to i8 (%"class.std::ctype"*, i8)***
  %49 = load i8 (%"class.std::ctype"*, i8)**, i8 (%"class.std::ctype"*, i8)*** %48, align 8, !tbaa !18
  %50 = getelementptr inbounds i8 (%"class.std::ctype"*, i8)*, i8 (%"class.std::ctype"*, i8)** %49, i64 6
  %51 = load i8 (%"class.std::ctype"*, i8)*, i8 (%"class.std::ctype"*, i8)** %50, align 8
  %52 = call signext i8 %51(%"class.std::ctype"* nonnull align 8 dereferenceable(570) %37, i8 signext 10)
  br label %53

53:                                               ; preds = %44, %47
  %54 = phi i8 [ %46, %44 ], [ %52, %47 ]
  %55 = call nonnull align 8 dereferenceable(8) %"class.std::basic_ostream"* @_ZNSo3putEc(%"class.std::basic_ostream"* nonnull align 8 dereferenceable(8) %27, i8 signext %54)
  %56 = call nonnull align 8 dereferenceable(8) %"class.std::basic_ostream"* @_ZNSo5flushEv(%"class.std::basic_ostream"* nonnull align 8 dereferenceable(8) %55)
  %57 = add nuw nsw i64 %22, 1
  %58 = load i32, i32* %1, align 4, !tbaa !5
  %59 = sext i32 %58 to i64
  %60 = icmp slt i64 %22, %59
  br i1 %60, label %21, label %61, !llvm.loop !27

61:                                               ; preds = %53, %0, %10
  call void @llvm.lifetime.end.p0i8(i64 400, i8* nonnull %6) #10
  call void @llvm.lifetime.end.p0i8(i64 4, i8* nonnull %5) #10
  call void @llvm.lifetime.end.p0i8(i64 4, i8* nonnull %4) #10
  ret i32 0
}

declare nonnull align 8 dereferenceable(16) %"class.std::basic_istream"* @_ZNSirsERi(%"class.std::basic_istream"* nonnull align 8 dereferenceable(16), i32* nonnull align 4 dereferenceable(4)) local_unnamed_addr #0

declare nonnull align 8 dereferenceable(8) %"class.std::basic_ostream"* @_ZNSolsEi(%"class.std::basic_ostream"* nonnull align 8 dereferenceable(8), i32) local_unnamed_addr #0

; Function Attrs: mustprogress nofree nounwind willreturn
declare double @sqrt(double) local_unnamed_addr #6

declare nonnull align 8 dereferenceable(8) %"class.std::basic_ostream"* @_ZNSo3putEc(%"class.std::basic_ostream"* nonnull align 8 dereferenceable(8), i8 signext) local_unnamed_addr #0

declare nonnull align 8 dereferenceable(8) %"class.std::basic_ostream"* @_ZNSo5flushEv(%"class.std::basic_ostream"* nonnull align 8 dereferenceable(8)) local_unnamed_addr #0

; Function Attrs: noreturn
declare void @_ZSt16__throw_bad_castv() local_unnamed_addr #7

declare void @_ZNKSt5ctypeIcE13_M_widen_initEv(%"class.std::ctype"* nonnull align 8 dereferenceable(570)) local_unnamed_addr #0

; Function Attrs: sspstrong uwtable
define internal void @_GLOBAL__sub_I_703.cpp() #8 section ".text.startup" {
  tail call void @_ZNSt8ios_base4InitC1Ev(%"class.std::ios_base::Init"* nonnull align 1 dereferenceable(1) @_ZStL8__ioinit)
  %1 = tail call i32 @__cxa_atexit(void (i8*)* bitcast (void (%"class.std::ios_base::Init"*)* @_ZNSt8ios_base4InitD1Ev to void (i8*)*), i8* getelementptr inbounds (%"class.std::ios_base::Init", %"class.std::ios_base::Init"* @_ZStL8__ioinit, i64 0, i32 0), i8* nonnull @__dso_handle) #10
  ret void
}

; Function Attrs: nofree nosync nounwind readnone willreturn
declare i32 @llvm.vector.reduce.add.v4i32(<4 x i32>) #9


!llvm.module.flags = !{!0, !1, !2, !3}
!llvm.ident = !{!4}

!0 = !{i32 1, !"wchar_size", i32 4}
!1 = !{i32 7, !"PIC Level", i32 2}
!2 = !{i32 7, !"PIE Level", i32 2}
!3 = !{i32 7, !"uwtable", i32 1}
!4 = !{!"clang version 13.0.0"}
!5 = !{!6, !6, i64 0}
!6 = !{!"int", !7, i64 0}
!7 = !{!"omnipotent char", !8, i64 0}
!8 = !{!"Simple C++ TBAA"}
!9 = distinct !{!9, !10, !11}
!10 = !{!"llvm.loop.mustprogress"}
!11 = !{!"llvm.loop.isvectorized", i32 1}
!12 = distinct !{!12, !13}
!13 = !{!"llvm.loop.unroll.disable"}
!14 = distinct !{!14, !10}
!15 = distinct !{!15, !10, !16, !11}
!16 = !{!"llvm.loop.unroll.runtime.disable"}
!17 = distinct !{!17, !10}
!18 = !{!19, !19, i64 0}
!19 = !{!"vtable pointer", !8, i64 0}
!20 = !{!21, !22, i64 240}
!21 = !{!"_ZTSSt9basic_iosIcSt11char_traitsIcEE", !22, i64 216, !7, i64 224, !23, i64 225, !22, i64 232, !22, i64 240, !22, i64 248, !22, i64 256}
!22 = !{!"any pointer", !7, i64 0}
!23 = !{!"bool", !7, i64 0}
!24 = !{!25, !7, i64 56}
!25 = !{!"_ZTSSt5ctypeIcE", !22, i64 16, !23, i64 24, !22, i64 32, !22, i64 40, !22, i64 48, !7, i64 56, !7, i64 57, !7, i64 313, !7, i64 569}
!26 = !{!7, !7, i64 0}
!27 = distinct !{!27, !10}
